; Function Attrs: nounwind sspstrong uwtable
define dso_local void @fw_cfg_modify_i16(ptr noundef readonly captures(none) %0, i16 noundef zeroext %1, i16 noundef zeroext %2) local_unnamed_addr #2 {
  %4 = tail call noalias dereferenceable_or_null(2) ptr @g_malloc(i64 noundef 2) #22
  store i16 %2, ptr %4, align 2
  %5 = and i16 %1, 16383
  %6 = zext nneg i16 %5 to i32
  %7 = getelementptr i8, ptr %0, i64 808
  %.val.i = load i16, ptr %7, align 8
  %8 = zext i16 %.val.i to i32
  %9 = add nuw nsw i32 %8, 32
  %10 = icmp samesign ugt i32 %9, %6
  br i1 %10, label %fw_cfg_modify_bytes_read.exit, label %11

11:                                               ; preds = %3
  tail call void @__assert_fail(ptr noundef nonnull @.str.46, ptr noundef nonnull @.str.1, i32 noundef 726, ptr noundef nonnull @__PRETTY_FUNCTION__.fw_cfg_modify_bytes_read) #19
  unreachable

fw_cfg_modify_bytes_read.exit:                    ; preds = %3
  %.lobit.i = lshr i16 %1, 15
  %12 = getelementptr inbounds nuw i8, ptr %0, i64 816
  %13 = zext nneg i16 %.lobit.i to i64
  %14 = getelementptr inbounds nuw [2 x ptr], ptr %12, i64 0, i64 %13
  %15 = load ptr, ptr %14, align 8
  %16 = zext nneg i16 %5 to i64
  %17 = getelementptr inbounds nuw %struct.FWCfgEntry, ptr %15, i64 %16, i32 2
  %18 = load ptr, ptr %17, align 8
  store ptr %4, ptr %17, align 8
  %19 = load ptr, ptr %14, align 8
  %20 = getelementptr inbounds nuw %struct.FWCfgEntry, ptr %19, i64 %16
  store i32 2, ptr %20, align 8
  %21 = load ptr, ptr %14, align 8
  %22 = getelementptr inbounds nuw %struct.FWCfgEntry, ptr %21, i64 %16, i32 1
  store i8 0, ptr %22, align 4
  tail call void @g_free(ptr noundef %18) #18
  ret void
}